target datalayout = "e-m:e-p270:32:32-p271:32:32-p272:64:64-i64:64-i128:128-f80:128-n8:16:32:64-S128"
target triple = "x86_64-pc-linux-gnu"

%struct._psqlSettings = type { ptr, i32, ptr, i8, ptr, ptr, %struct.printQueryOpt, ptr, ptr, ptr, i8, i8, i32, i32, ptr, ptr, i8, [4 x ptr], i8, i32, ptr, i8, i32, ptr, ptr, i64, i64, i8, ptr, ptr, ptr, i8, i8, i8, i8, i8, i8, i8, i32, i32, i32, i32, i32, i32, i32, i32, ptr, ptr, ptr, i32, i8, i32 }
%struct.printQueryOpt = type { %struct.printTableOpt, ptr, ptr, ptr, i8, ptr, i32 }
%struct.printTableOpt = type { i32, i16, i32, i32, i16, i16, i32, i8, i8, i8, i8, i64, ptr, %struct.separator, %struct.separator, [2 x i8], i8, ptr, i32, i32, i32, i32, i32, i32 }
%struct.separator = type { ptr, i8 }

@pset = external global %struct._psqlSettings, align 8
@.str.117 = private unnamed_addr constant [5 x i8] c"list\00", align 1
@.str.157 = private unnamed_addr constant [31 x i8] c"\\%s: missing required argument\00", align 1
@.str.249 = private unnamed_addr constant [7 x i8] c"export\00", align 1
@.str.250 = private unnamed_addr constant [7 x i8] c"import\00", align 1
@.str.251 = private unnamed_addr constant [7 x i8] c"unlink\00", align 1

; Function Attrs: nounwind uwtable
define internal void @ignore_slash_options(ptr noundef %0) #0 {
  %2 = alloca ptr, align 8
  %3 = alloca ptr, align 8
  store ptr %0, ptr %2, align 8
  call void @llvm.lifetime.start.p0(i64 8, ptr %3) #10
  br label %4

4:                                                ; preds = %8, %1
  %5 = load ptr, ptr %2, align 8
  %6 = call ptr @psql_scan_slash_option(ptr noundef %5, i32 noundef 0, ptr noundef null, i1 noundef zeroext false)
  store ptr %6, ptr %3, align 8
  %7 = icmp ne ptr %6, null
  br i1 %7, label %8, label %10

8:                                                ; preds = %4
  %9 = load ptr, ptr %3, align 8
  call void @free(ptr noundef %9) #10
  br label %4, !llvm.loop !18

10:                                               ; preds = %4
  call void @llvm.lifetime.end.p0(i64 8, ptr %3) #10
  ret void
}

; Function Attrs: nounwind uwtable
define internal i32 @exec_command_lo(ptr noundef %0, i1 noundef zeroext %1, ptr noundef %2) #0 {
  %4 = alloca ptr, align 8
  %5 = alloca i8, align 1
  %6 = alloca ptr, align 8
  %7 = alloca i32, align 4
  %8 = alloca i8, align 1
  %9 = alloca ptr, align 8
  %10 = alloca ptr, align 8
  %11 = alloca i8, align 1
  %12 = alloca i16, align 2
  store ptr %0, ptr %4, align 8
  %13 = zext i1 %1 to i8
  store i8 %13, ptr %5, align 1
  store ptr %2, ptr %6, align 8
  call void @llvm.lifetime.start.p0(i64 4, ptr %7) #10
  store i32 2, ptr %7, align 4
  call void @llvm.lifetime.start.p0(i64 1, ptr %8) #10
  store i8 1, ptr %8, align 1
  %14 = load i8, ptr %5, align 1, !range !4, !noundef !5
  %15 = trunc i8 %14 to i1
  br i1 %15, label %16, label %97

16:                                               ; preds = %3
  call void @llvm.lifetime.start.p0(i64 8, ptr %9) #10
  call void @llvm.lifetime.start.p0(i64 8, ptr %10) #10
  %17 = load ptr, ptr %4, align 8
  %18 = call ptr @psql_scan_slash_option(ptr noundef %17, i32 noundef 0, ptr noundef null, i1 noundef zeroext true)
  store ptr %18, ptr %9, align 8
  %19 = load ptr, ptr %4, align 8
  %20 = call ptr @psql_scan_slash_option(ptr noundef %19, i32 noundef 0, ptr noundef null, i1 noundef zeroext true)
  store ptr %20, ptr %10, align 8
  %21 = load ptr, ptr %6, align 8
  %22 = getelementptr inbounds i8, ptr %21, i64 3
  %23 = call i32 @strcmp(ptr noundef %22, ptr noundef @.str.249) #11
  %24 = icmp eq i32 %23, 0
  br i1 %24, label %25, label %36

25:                                               ; preds = %16
  %26 = load ptr, ptr %10, align 8
  %27 = icmp ne ptr %26, null
  br i1 %27, label %30, label %28

28:                                               ; preds = %25
  %29 = load ptr, ptr %6, align 8
  call void (i32, i32, ptr, ...) @pg_log_generic(i32 noundef 4, i32 noundef 0, ptr noundef @.str.157, ptr noundef %29)
  store i8 0, ptr %8, align 1
  br label %35

30:                                               ; preds = %25
  call void @expand_tilde(ptr noundef %10)
  %31 = load ptr, ptr %9, align 8
  %32 = load ptr, ptr %10, align 8
  %33 = call zeroext i1 @do_lo_export(ptr noundef %31, ptr noundef %32)
  %34 = zext i1 %33 to i8
  store i8 %34, ptr %8, align 1
  br label %35

35:                                               ; preds = %30, %28
  br label %94

36:                                               ; preds = %16
  %37 = load ptr, ptr %6, align 8
  %38 = getelementptr inbounds i8, ptr %37, i64 3
  %39 = call i32 @strcmp(ptr noundef %38, ptr noundef @.str.250) #11
  %40 = icmp eq i32 %39, 0
  br i1 %40, label %41, label %52

41:                                               ; preds = %36
  %42 = load ptr, ptr %9, align 8
  %43 = icmp ne ptr %42, null
  br i1 %43, label %46, label %44

44:                                               ; preds = %41
  %45 = load ptr, ptr %6, align 8
  call void (i32, i32, ptr, ...) @pg_log_generic(i32 noundef 4, i32 noundef 0, ptr noundef @.str.157, ptr noundef %45)
  store i8 0, ptr %8, align 1
  br label %51

46:                                               ; preds = %41
  call void @expand_tilde(ptr noundef %9)
  %47 = load ptr, ptr %9, align 8
  %48 = load ptr, ptr %10, align 8
  %49 = call zeroext i1 @do_lo_import(ptr noundef %47, ptr noundef %48)
  %50 = zext i1 %49 to i8
  store i8 %50, ptr %8, align 1
  br label %51

51:                                               ; preds = %46, %44
  br label %93

52:                                               ; preds = %36
  %53 = load ptr, ptr %6, align 8
  %54 = getelementptr inbounds i8, ptr %53, i64 3
  %55 = call i32 @strncmp(ptr noundef %54, ptr noundef @.str.117, i64 noundef 4) #11
  %56 = icmp eq i32 %55, 0
  br i1 %56, label %57, label %75

57:                                               ; preds = %52
  call void @llvm.lifetime.start.p0(i64 1, ptr %11) #10
  call void @llvm.lifetime.start.p0(i64 2, ptr %12) #10
  %58 = load ptr, ptr %6, align 8
  %59 = call ptr @strchr(ptr noundef %58, i32 noundef 43) #11
  %60 = icmp ne ptr %59, null
  %61 = select i1 %60, i32 1, i32 0
  %62 = icmp ne i32 %61, 0
  %63 = zext i1 %62 to i8
  store i8 %63, ptr %11, align 1
  %64 = load i16, ptr getelementptr inbounds nuw (%struct.printTableOpt, ptr getelementptr inbounds nuw (%struct._psqlSettings, ptr @pset, i32 0, i32 6), i32 0, i32 1), align 4
  store i16 %64, ptr %12, align 2
  %65 = load ptr, ptr %6, align 8
  %66 = call ptr @strchr(ptr noundef %65, i32 noundef 120) #11
  %67 = icmp ne ptr %66, null
  br i1 %67, label %68, label %69

68:                                               ; preds = %57
  store i16 1, ptr getelementptr inbounds nuw (%struct.printTableOpt, ptr getelementptr inbounds nuw (%struct._psqlSettings, ptr @pset, i32 0, i32 6), i32 0, i32 1), align 4
  br label %69

69:                                               ; preds = %68, %57
  %70 = load i8, ptr %11, align 1, !range !4, !noundef !5
  %71 = trunc i8 %70 to i1
  %72 = call zeroext i1 @listLargeObjects(i1 noundef zeroext %71)
  %73 = zext i1 %72 to i8
  store i8 %73, ptr %8, align 1
  %74 = load i16, ptr %12, align 2
  store i16 %74, ptr getelementptr inbounds nuw (%struct.printTableOpt, ptr getelementptr inbounds nuw (%struct._psqlSettings, ptr @pset, i32 0, i32 6), i32 0, i32 1), align 4
  call void @llvm.lifetime.end.p0(i64 2, ptr %12) #10
  call void @llvm.lifetime.end.p0(i64 1, ptr %11) #10
  br label %92

75:                                               ; preds = %52
  %76 = load ptr, ptr %6, align 8
  %77 = getelementptr inbounds i8, ptr %76, i64 3
  %78 = call i32 @strcmp(ptr noundef %77, ptr noundef @.str.251) #11
  %79 = icmp eq i32 %78, 0
  br i1 %79, label %80, label %90

80:                                               ; preds = %75
  %81 = load ptr, ptr %9, align 8
  %82 = icmp ne ptr %81, null
  br i1 %82, label %85, label %83

83:                                               ; preds = %80
  %84 = load ptr, ptr %6, align 8
  call void (i32, i32, ptr, ...) @pg_log_generic(i32 noundef 4, i32 noundef 0, ptr noundef @.str.157, ptr noundef %84)
  store i8 0, ptr %8, align 1
  br label %89

85:                                               ; preds = %80
  %86 = load ptr, ptr %9, align 8
  %87 = call zeroext i1 @do_lo_unlink(ptr noundef %86)
  %88 = zext i1 %87 to i8
  store i8 %88, ptr %8, align 1
  br label %89

89:                                               ; preds = %85, %83
  br label %91

90:                                               ; preds = %75
  store i32 0, ptr %7, align 4
  br label %91

91:                                               ; preds = %90, %89
  br label %92

92:                                               ; preds = %91, %69
  br label %93

93:                                               ; preds = %92, %51
  br label %94

94:                                               ; preds = %93, %35
  %95 = load ptr, ptr %9, align 8
  call void @free(ptr noundef %95) #10
  %96 = load ptr, ptr %10, align 8
  call void @free(ptr noundef %96) #10
  call void @llvm.lifetime.end.p0(i64 8, ptr %10) #10
  call void @llvm.lifetime.end.p0(i64 8, ptr %9) #10
  br label %99

97:                                               ; preds = %3
  %98 = load ptr, ptr %4, align 8
  call void @ignore_slash_options(ptr noundef %98)
  br label %99

99:                                               ; preds = %97, %94
  %100 = load i8, ptr %8, align 1, !range !4, !noundef !5
  %101 = trunc i8 %100 to i1
  br i1 %101, label %103, label %102

102:                                              ; preds = %99
  store i32 5, ptr %7, align 4
  br label %103

103:                                              ; preds = %102, %99
  %104 = load i32, ptr %7, align 4
  call void @llvm.lifetime.end.p0(i64 1, ptr %8) #10
  call void @llvm.lifetime.end.p0(i64 4, ptr %7) #10
  ret i32 %104
}