; Function Attrs: nounwind uwtable
define internal fastcc range(i32 0, 6) i32 @exec_command_lo(ptr noundef %0, i1 noundef zeroext %1, ptr noundef %2) unnamed_addr #0 {
  %4 = alloca ptr, align 8
  %5 = alloca ptr, align 8
  br i1 %1, label %6, label %43

6:                                                ; preds = %3
  call void @llvm.lifetime.start.p0(i64 8, ptr nonnull %4) #16
  call void @llvm.lifetime.start.p0(i64 8, ptr nonnull %5) #16
  %7 = tail call ptr @psql_scan_slash_option(ptr noundef %0, i32 noundef 0, ptr noundef null, i1 noundef zeroext true) #16
  store ptr %7, ptr %4, align 8
  %8 = tail call ptr @psql_scan_slash_option(ptr noundef %0, i32 noundef 0, ptr noundef null, i1 noundef zeroext true) #16
  store ptr %8, ptr %5, align 8
  %9 = getelementptr inbounds nuw i8, ptr %2, i64 3
  %10 = tail call i32 @strcmp(ptr noundef nonnull dereferenceable(1) %9, ptr noundef nonnull dereferenceable(7) @.str.249) #17
  %11 = icmp eq i32 %10, 0
  br i1 %11, label %12, label %17

12:                                               ; preds = %6
  %.not21 = icmp eq ptr %8, null
  br i1 %.not21, label %13, label %14

13:                                               ; preds = %12
  tail call void (i32, i32, ptr, ...) @pg_log_generic(i32 noundef 4, i32 noundef 0, ptr noundef nonnull @.str.157, ptr noundef nonnull %2) #16
  br label %ignore_slash_options.exit

14:                                               ; preds = %12
  call void @expand_tilde(ptr noundef nonnull %5) #16
  %15 = load ptr, ptr %5, align 8
  %16 = call zeroext i1 @do_lo_export(ptr noundef %7, ptr noundef %15) #16
  %.pre26 = load ptr, ptr %5, align 8
  br label %ignore_slash_options.exit

17:                                               ; preds = %6
  %18 = tail call i32 @strcmp(ptr noundef nonnull dereferenceable(1) %9, ptr noundef nonnull dereferenceable(7) @.str.250) #17
  %19 = icmp eq i32 %18, 0
  br i1 %19, label %20, label %25

20:                                               ; preds = %17
  %.not20 = icmp eq ptr %7, null
  br i1 %.not20, label %21, label %22

21:                                               ; preds = %20
  tail call void (i32, i32, ptr, ...) @pg_log_generic(i32 noundef 4, i32 noundef 0, ptr noundef nonnull @.str.157, ptr noundef nonnull %2) #16
  br label %ignore_slash_options.exit

22:                                               ; preds = %20
  call void @expand_tilde(ptr noundef nonnull %4) #16
  %23 = load ptr, ptr %4, align 8
  %24 = call zeroext i1 @do_lo_import(ptr noundef %23, ptr noundef %8) #16
  %.pre = load ptr, ptr %4, align 8
  br label %ignore_slash_options.exit

25:                                               ; preds = %17
  %26 = tail call i32 @strncmp(ptr noundef nonnull dereferenceable(1) %9, ptr noundef nonnull dereferenceable(5) @.str.117, i64 noundef 4) #17
  %27 = icmp eq i32 %26, 0
  br i1 %27, label %28, label %36

28:                                               ; preds = %25
  %29 = tail call ptr @strchr(ptr noundef nonnull dereferenceable(1) %2, i32 noundef 43) #17
  %30 = icmp ne ptr %29, null
  %31 = load i16, ptr getelementptr inbounds nuw (i8, ptr @pset, i64 52), align 4
  %32 = tail call ptr @strchr(ptr noundef nonnull dereferenceable(1) %2, i32 noundef 120) #17
  %.not19 = icmp eq ptr %32, null
  br i1 %.not19, label %34, label %33

33:                                               ; preds = %28
  store i16 1, ptr getelementptr inbounds nuw (i8, ptr @pset, i64 52), align 4
  br label %34

34:                                               ; preds = %33, %28
  %35 = tail call zeroext i1 @listLargeObjects(i1 noundef zeroext %30) #16
  store i16 %31, ptr getelementptr inbounds nuw (i8, ptr @pset, i64 52), align 4
  br label %ignore_slash_options.exit

36:                                               ; preds = %25
  %37 = tail call i32 @strcmp(ptr noundef nonnull dereferenceable(1) %9, ptr noundef nonnull dereferenceable(7) @.str.251) #17
  %38 = icmp eq i32 %37, 0
  br i1 %38, label %39, label %ignore_slash_options.exit

39:                                               ; preds = %36
  %.not = icmp eq ptr %7, null
  br i1 %.not, label %40, label %41

40:                                               ; preds = %39
  tail call void (i32, i32, ptr, ...) @pg_log_generic(i32 noundef 4, i32 noundef 0, ptr noundef nonnull @.str.157, ptr noundef nonnull %2) #16
  br label %ignore_slash_options.exit

41:                                               ; preds = %39
  %42 = tail call zeroext i1 @do_lo_unlink(ptr noundef nonnull %7) #16
  br label %ignore_slash_options.exit

43:                                               ; preds = %3
  %44 = tail call ptr @psql_scan_slash_option(ptr noundef %0, i32 noundef 0, ptr noundef null, i1 noundef zeroext false) #16
  %.not2.i = icmp eq ptr %44, null
  br i1 %.not2.i, label %ignore_slash_options.exit.thread, label %.lr.ph.i

.lr.ph.i:                                         ; preds = %43, %.lr.ph.i
  %45 = phi ptr [ %46, %.lr.ph.i ], [ %44, %43 ]
  tail call void @free(ptr noundef nonnull %45) #16
  %46 = tail call ptr @psql_scan_slash_option(ptr noundef %0, i32 noundef 0, ptr noundef null, i1 noundef zeroext false) #16
  %.not.i = icmp eq ptr %46, null
  br i1 %.not.i, label %ignore_slash_options.exit.thread, label %.lr.ph.i, !llvm.loop !10

ignore_slash_options.exit:                        ; preds = %14, %13, %34, %40, %41, %21, %22, %36
  %47 = phi ptr [ %.pre26, %14 ], [ null, %13 ], [ %8, %22 ], [ %8, %21 ], [ %8, %34 ], [ %8, %41 ], [ %8, %40 ], [ %8, %36 ]
  %48 = phi ptr [ %7, %14 ], [ %7, %13 ], [ %.pre, %22 ], [ null, %21 ], [ %7, %34 ], [ %7, %41 ], [ null, %40 ], [ %7, %36 ]
  %.016.shrunk = phi i1 [ %16, %14 ], [ false, %13 ], [ %24, %22 ], [ false, %21 ], [ %35, %34 ], [ %42, %41 ], [ false, %40 ], [ true, %36 ]
  %.0 = phi i32 [ 2, %14 ], [ 2, %13 ], [ 2, %22 ], [ 2, %21 ], [ 2, %34 ], [ 2, %41 ], [ 2, %40 ], [ 0, %36 ]
  call void @free(ptr noundef %48) #16
  call void @free(ptr noundef %47) #16
  call void @llvm.lifetime.end.p0(i64 8, ptr nonnull %5) #16
  call void @llvm.lifetime.end.p0(i64 8, ptr nonnull %4) #16
  %cond.fr = freeze i1 %.016.shrunk
  %spec.select = select i1 %cond.fr, i32 %.0, i32 5
  br label %ignore_slash_options.exit.thread

ignore_slash_options.exit.thread:                 ; preds = %.lr.ph.i, %ignore_slash_options.exit, %43
  %49 = phi i32 [ 2, %43 ], [ %spec.select, %ignore_slash_options.exit ], [ 2, %.lr.ph.i ]
  ret i32 %49
}